target datalayout = "e-m:e-p270:32:32-p271:32:32-p272:64:64-i64:64-i128:128-f80:128-n8:16:32:64-S128"
target triple = "x86_64-pc-linux-gnu"

%struct.CRYPTO_REF_COUNT = type { i32 }
%struct.bio_st = type { ptr, ptr, ptr, ptr, ptr, i32, i32, i32, i32, i32, ptr, ptr, ptr, %struct.CRYPTO_REF_COUNT, i64, i64, %struct.crypto_ex_data_st }
%struct.crypto_ex_data_st = type { ptr, ptr }

; Function Attrs: inlinehint nounwind uwtable
define internal i32 @CRYPTO_GET_REF(ptr noundef %0, ptr noundef %1) #3 {
  %3 = alloca ptr, align 8
  %4 = alloca ptr, align 8
  %5 = alloca i32, align 4
  store ptr %0, ptr %3, align 8, !tbaa !25
  store ptr %1, ptr %4, align 8, !tbaa !31
  %6 = load ptr, ptr %3, align 8, !tbaa !25
  %7 = getelementptr inbounds nuw %struct.CRYPTO_REF_COUNT, ptr %6, i32 0, i32 0
  %8 = load atomic i32, ptr %7 acquire, align 4
  store i32 %8, ptr %5, align 4
  %9 = load i32, ptr %5, align 4, !tbaa !26
  %10 = load ptr, ptr %4, align 8, !tbaa !31
  store i32 %9, ptr %10, align 4, !tbaa !26
  ret i32 1
}

; Function Attrs: nounwind uwtable
define void @BIO_free_all(ptr noundef %0) #0 {
  %2 = alloca ptr, align 8
  %3 = alloca ptr, align 8
  %4 = alloca i32, align 4
  store ptr %0, ptr %2, align 8, !tbaa !10
  call void @llvm.lifetime.start.p0(i64 8, ptr %3) #5
  call void @llvm.lifetime.start.p0(i64 4, ptr %4) #5
  br label %5

5:                                                ; preds = %21, %1
  %6 = load ptr, ptr %2, align 8, !tbaa !10
  %7 = icmp ne ptr %6, null
  br i1 %7, label %8, label %22

8:                                                ; preds = %5
  %9 = load ptr, ptr %2, align 8, !tbaa !10
  store ptr %9, ptr %3, align 8, !tbaa !10
  %10 = load ptr, ptr %3, align 8, !tbaa !10
  %11 = getelementptr inbounds nuw %struct.bio_st, ptr %10, i32 0, i32 13
  %12 = call i32 @CRYPTO_GET_REF(ptr noundef %11, ptr noundef %4)
  %13 = load ptr, ptr %2, align 8, !tbaa !10
  %14 = getelementptr inbounds nuw %struct.bio_st, ptr %13, i32 0, i32 11
  %15 = load ptr, ptr %14, align 8, !tbaa !66
  store ptr %15, ptr %2, align 8, !tbaa !10
  %16 = load ptr, ptr %3, align 8, !tbaa !10
  %17 = call i32 @BIO_free(ptr noundef %16)
  %18 = load i32, ptr %4, align 4, !tbaa !26
  %19 = icmp sgt i32 %18, 1
  br i1 %19, label %20, label %21

20:                                               ; preds = %8
  br label %22

21:                                               ; preds = %8
  br label %5, !llvm.loop !71

22:                                               ; preds = %20, %5
  call void @llvm.lifetime.end.p0(i64 4, ptr %4) #5
  call void @llvm.lifetime.end.p0(i64 8, ptr %3) #5
  ret void
}

; Function Attrs: nounwind uwtable
define ptr @BIO_push(ptr noundef %0, ptr noundef %1) #0 {
  %3 = alloca ptr, align 8
  %4 = alloca ptr, align 8
  %5 = alloca ptr, align 8
  %6 = alloca ptr, align 8
  %7 = alloca i32, align 4
  store ptr %0, ptr %4, align 8, !tbaa !10
  store ptr %1, ptr %5, align 8, !tbaa !10
  call void @llvm.lifetime.start.p0(i64 8, ptr %6) #5
  %8 = load ptr, ptr %4, align 8, !tbaa !10
  %9 = icmp eq ptr %8, null
  br i1 %9, label %10, label %12

10:                                               ; preds = %2
  %11 = load ptr, ptr %5, align 8, !tbaa !10
  store ptr %11, ptr %3, align 8
  store i32 1, ptr %7, align 4
  br label %38

12:                                               ; preds = %2
  %13 = load ptr, ptr %4, align 8, !tbaa !10
  store ptr %13, ptr %6, align 8, !tbaa !10
  br label %14

14:                                               ; preds = %19, %12
  %15 = load ptr, ptr %6, align 8, !tbaa !10
  %16 = getelementptr inbounds nuw %struct.bio_st, ptr %15, i32 0, i32 11
  %17 = load ptr, ptr %16, align 8, !tbaa !66
  %18 = icmp ne ptr %17, null
  br i1 %18, label %19, label %23

19:                                               ; preds = %14
  %20 = load ptr, ptr %6, align 8, !tbaa !10
  %21 = getelementptr inbounds nuw %struct.bio_st, ptr %20, i32 0, i32 11
  %22 = load ptr, ptr %21, align 8, !tbaa !66
  store ptr %22, ptr %6, align 8, !tbaa !10
  br label %14, !llvm.loop !67

23:                                               ; preds = %14
  %24 = load ptr, ptr %5, align 8, !tbaa !10
  %25 = load ptr, ptr %6, align 8, !tbaa !10
  %26 = getelementptr inbounds nuw %struct.bio_st, ptr %25, i32 0, i32 11
  store ptr %24, ptr %26, align 8, !tbaa !66
  %27 = load ptr, ptr %5, align 8, !tbaa !10
  %28 = icmp ne ptr %27, null
  br i1 %28, label %29, label %33

29:                                               ; preds = %23
  %30 = load ptr, ptr %6, align 8, !tbaa !10
  %31 = load ptr, ptr %5, align 8, !tbaa !10
  %32 = getelementptr inbounds nuw %struct.bio_st, ptr %31, i32 0, i32 12
  store ptr %30, ptr %32, align 8, !tbaa !68
  br label %33

33:                                               ; preds = %29, %23
  %34 = load ptr, ptr %4, align 8, !tbaa !10
  %35 = load ptr, ptr %6, align 8, !tbaa !10
  %36 = call i64 @BIO_ctrl(ptr noundef %34, i32 noundef 6, i64 noundef 0, ptr noundef %35)
  %37 = load ptr, ptr %4, align 8, !tbaa !10
  store ptr %37, ptr %3, align 8
  store i32 1, ptr %7, align 4
  br label %38

38:                                               ; preds = %33, %10
  call void @llvm.lifetime.end.p0(i64 8, ptr %6) #5
  %39 = load ptr, ptr %3, align 8
  ret ptr %39
}

; Function Attrs: nounwind uwtable
define ptr @BIO_new(ptr noundef %0) #0 {
  %2 = alloca ptr, align 8
  store ptr %0, ptr %2, align 8, !tbaa !8
  %3 = load ptr, ptr %2, align 8, !tbaa !8
  %4 = call ptr @BIO_new_ex(ptr noundef null, ptr noundef %3)
  ret ptr %4
}

; Function Attrs: nounwind uwtable
define ptr @BIO_dup_chain(ptr noundef %0) #0 {
  %2 = alloca ptr, align 8
  %3 = alloca ptr, align 8
  %4 = alloca ptr, align 8
  %5 = alloca ptr, align 8
  %6 = alloca ptr, align 8
  %7 = alloca ptr, align 8
  %8 = alloca i32, align 4
  store ptr %0, ptr %3, align 8, !tbaa !10
  call void @llvm.lifetime.start.p0(i64 8, ptr %4) #5
  store ptr null, ptr %4, align 8, !tbaa !10
  call void @llvm.lifetime.start.p0(i64 8, ptr %5) #5
  store ptr null, ptr %5, align 8, !tbaa !10
  call void @llvm.lifetime.start.p0(i64 8, ptr %6) #5
  call void @llvm.lifetime.start.p0(i64 8, ptr %7) #5
  %9 = load ptr, ptr %3, align 8, !tbaa !10
  store ptr %9, ptr %6, align 8, !tbaa !10
  br label %10

10:                                               ; preds = %85, %1
  %11 = load ptr, ptr %6, align 8, !tbaa !10
  %12 = icmp ne ptr %11, null
  br i1 %12, label %13, label %89

13:                                               ; preds = %10
  %14 = load ptr, ptr %6, align 8, !tbaa !10
  %15 = getelementptr inbounds nuw %struct.bio_st, ptr %14, i32 0, i32 1
  %16 = load ptr, ptr %15, align 8, !tbaa !20
  %17 = call ptr @BIO_new(ptr noundef %16)
  store ptr %17, ptr %7, align 8, !tbaa !10
  %18 = icmp eq ptr %17, null
  br i1 %18, label %19, label %20

19:                                               ; preds = %13
  br label %91

20:                                               ; preds = %13
  %21 = load ptr, ptr %6, align 8, !tbaa !10
  %22 = getelementptr inbounds nuw %struct.bio_st, ptr %21, i32 0, i32 2
  %23 = load ptr, ptr %22, align 8, !tbaa !28
  %24 = load ptr, ptr %7, align 8, !tbaa !10
  %25 = getelementptr inbounds nuw %struct.bio_st, ptr %24, i32 0, i32 2
  store ptr %23, ptr %25, align 8, !tbaa !28
  %26 = load ptr, ptr %6, align 8, !tbaa !10
  %27 = getelementptr inbounds nuw %struct.bio_st, ptr %26, i32 0, i32 3
  %28 = load ptr, ptr %27, align 8, !tbaa !29
  %29 = load ptr, ptr %7, align 8, !tbaa !10
  %30 = getelementptr inbounds nuw %struct.bio_st, ptr %29, i32 0, i32 3
  store ptr %28, ptr %30, align 8, !tbaa !29
  %31 = load ptr, ptr %6, align 8, !tbaa !10
  %32 = getelementptr inbounds nuw %struct.bio_st, ptr %31, i32 0, i32 4
  %33 = load ptr, ptr %32, align 8, !tbaa !39
  %34 = load ptr, ptr %7, align 8, !tbaa !10
  %35 = getelementptr inbounds nuw %struct.bio_st, ptr %34, i32 0, i32 4
  store ptr %33, ptr %35, align 8, !tbaa !39
  %36 = load ptr, ptr %6, align 8, !tbaa !10
  %37 = getelementptr inbounds nuw %struct.bio_st, ptr %36, i32 0, i32 5
  %38 = load i32, ptr %37, align 8, !tbaa !24
  %39 = load ptr, ptr %7, align 8, !tbaa !10
  %40 = getelementptr inbounds nuw %struct.bio_st, ptr %39, i32 0, i32 5
  store i32 %38, ptr %40, align 8, !tbaa !24
  %41 = load ptr, ptr %6, align 8, !tbaa !10
  %42 = getelementptr inbounds nuw %struct.bio_st, ptr %41, i32 0, i32 6
  %43 = load i32, ptr %42, align 4, !tbaa !21
  %44 = load ptr, ptr %7, align 8, !tbaa !10
  %45 = getelementptr inbounds nuw %struct.bio_st, ptr %44, i32 0, i32 6
  store i32 %43, ptr %45, align 4, !tbaa !21
  %46 = load ptr, ptr %6, align 8, !tbaa !10
  %47 = getelementptr inbounds nuw %struct.bio_st, ptr %46, i32 0, i32 7
  %48 = load i32, ptr %47, align 8, !tbaa !38
  %49 = load ptr, ptr %7, align 8, !tbaa !10
  %50 = getelementptr inbounds nuw %struct.bio_st, ptr %49, i32 0, i32 7
  store i32 %48, ptr %50, align 8, !tbaa !38
  %51 = load ptr, ptr %6, align 8, !tbaa !10
  %52 = getelementptr inbounds nuw %struct.bio_st, ptr %51, i32 0, i32 9
  %53 = load i32, ptr %52, align 8, !tbaa !72
  %54 = load ptr, ptr %7, align 8, !tbaa !10
  %55 = getelementptr inbounds nuw %struct.bio_st, ptr %54, i32 0, i32 9
  store i32 %53, ptr %55, align 8, !tbaa !72
  %56 = load ptr, ptr %6, align 8, !tbaa !10
  %57 = load ptr, ptr %7, align 8, !tbaa !10
  %58 = call i64 @BIO_ctrl(ptr noundef %56, i32 noundef 12, i64 noundef 0, ptr noundef %57)
  %59 = icmp sle i64 %58, 0
  br i1 %59, label %60, label %63

60:                                               ; preds = %20
  %61 = load ptr, ptr %7, align 8, !tbaa !10
  %62 = call i32 @BIO_free(ptr noundef %61)
  br label %91

63:                                               ; preds = %20
  %64 = load ptr, ptr %7, align 8, !tbaa !10
  %65 = getelementptr inbounds nuw %struct.bio_st, ptr %64, i32 0, i32 16
  %66 = load ptr, ptr %6, align 8, !tbaa !10
  %67 = getelementptr inbounds nuw %struct.bio_st, ptr %66, i32 0, i32 16
  %68 = call i32 @CRYPTO_dup_ex_data(i32 noundef 12, ptr noundef %65, ptr noundef %67)
  %69 = icmp ne i32 %68, 0
  br i1 %69, label %73, label %70

70:                                               ; preds = %63
  %71 = load ptr, ptr %7, align 8, !tbaa !10
  %72 = call i32 @BIO_free(ptr noundef %71)
  br label %91

73:                                               ; preds = %63
  %74 = load ptr, ptr %4, align 8, !tbaa !10
  %75 = icmp eq ptr %74, null
  br i1 %75, label %76, label %79

76:                                               ; preds = %73
  %77 = load ptr, ptr %7, align 8, !tbaa !10
  store ptr %77, ptr %5, align 8, !tbaa !10
  %78 = load ptr, ptr %5, align 8, !tbaa !10
  store ptr %78, ptr %4, align 8, !tbaa !10
  br label %84

79:                                               ; preds = %73
  %80 = load ptr, ptr %5, align 8, !tbaa !10
  %81 = load ptr, ptr %7, align 8, !tbaa !10
  %82 = call ptr @BIO_push(ptr noundef %80, ptr noundef %81)
  %83 = load ptr, ptr %7, align 8, !tbaa !10
  store ptr %83, ptr %5, align 8, !tbaa !10
  br label %84

84:                                               ; preds = %79, %76
  br label %85

85:                                               ; preds = %84
  %86 = load ptr, ptr %6, align 8, !tbaa !10
  %87 = getelementptr inbounds nuw %struct.bio_st, ptr %86, i32 0, i32 11
  %88 = load ptr, ptr %87, align 8, !tbaa !66
  store ptr %88, ptr %6, align 8, !tbaa !10
  br label %10, !llvm.loop !73

89:                                               ; preds = %10
  %90 = load ptr, ptr %4, align 8, !tbaa !10
  store ptr %90, ptr %2, align 8
  store i32 1, ptr %8, align 4
  br label %93

91:                                               ; preds = %70, %60, %19
  %92 = load ptr, ptr %4, align 8, !tbaa !10
  call void @BIO_free_all(ptr noundef %92)
  store ptr null, ptr %2, align 8
  store i32 1, ptr %8, align 4
  br label %93

93:                                               ; preds = %91, %89
  call void @llvm.lifetime.end.p0(i64 8, ptr %7) #5
  call void @llvm.lifetime.end.p0(i64 8, ptr %6) #5
  call void @llvm.lifetime.end.p0(i64 8, ptr %5) #5
  call void @llvm.lifetime.end.p0(i64 8, ptr %4) #5
  %94 = load ptr, ptr %2, align 8
  ret ptr %94
}