; Function Attrs: nounwind uwtable
define ptr @BIO_dup_chain(ptr noundef %0) local_unnamed_addr #0 {
  %.not50 = icmp eq ptr %0, null
  br i1 %.not50, label %BIO_free_all.exit, label %.lr.ph

.lr.ph:                                           ; preds = %1, %BIO_push.exit
  %.03353 = phi ptr [ %45, %BIO_push.exit ], [ %0, %1 ]
  %.03452 = phi ptr [ %4, %BIO_push.exit ], [ null, %1 ]
  %.03551 = phi ptr [ %.136, %BIO_push.exit ], [ null, %1 ]
  %2 = getelementptr inbounds nuw i8, ptr %.03353, i64 8
  %3 = load ptr, ptr %2, align 8, !tbaa !17
  %4 = tail call ptr @BIO_new_ex(ptr noundef null, ptr noundef %3)
  %5 = icmp eq ptr %4, null
  br i1 %5, label %.loopexit, label %6

6:                                                ; preds = %.lr.ph
  %7 = getelementptr inbounds nuw i8, ptr %.03353, i64 16
  %8 = load ptr, ptr %7, align 8, !tbaa !23
  %9 = getelementptr inbounds nuw i8, ptr %4, i64 16
  store ptr %8, ptr %9, align 8, !tbaa !23
  %10 = getelementptr inbounds nuw i8, ptr %.03353, i64 24
  %11 = load ptr, ptr %10, align 8, !tbaa !24
  %12 = getelementptr inbounds nuw i8, ptr %4, i64 24
  store ptr %11, ptr %12, align 8, !tbaa !24
  %13 = getelementptr inbounds nuw i8, ptr %.03353, i64 32
  %14 = load ptr, ptr %13, align 8, !tbaa !28
  %15 = getelementptr inbounds nuw i8, ptr %4, i64 32
  store ptr %14, ptr %15, align 8, !tbaa !28
  %16 = getelementptr inbounds nuw i8, ptr %.03353, i64 40
  %17 = load i32, ptr %16, align 8, !tbaa !22
  %18 = getelementptr inbounds nuw i8, ptr %4, i64 40
  store i32 %17, ptr %18, align 8, !tbaa !22
  %19 = getelementptr inbounds nuw i8, ptr %.03353, i64 44
  %20 = load i32, ptr %19, align 4, !tbaa !18
  %21 = getelementptr inbounds nuw i8, ptr %4, i64 44
  store i32 %20, ptr %21, align 4, !tbaa !18
  %22 = getelementptr inbounds nuw i8, ptr %.03353, i64 48
  %23 = load i32, ptr %22, align 8, !tbaa !27
  %24 = getelementptr inbounds nuw i8, ptr %4, i64 48
  store i32 %23, ptr %24, align 8, !tbaa !27
  %25 = getelementptr inbounds nuw i8, ptr %.03353, i64 56
  %26 = load i32, ptr %25, align 8, !tbaa !62
  %27 = getelementptr inbounds nuw i8, ptr %4, i64 56
  store i32 %26, ptr %27, align 8, !tbaa !62
  %28 = tail call i64 @BIO_ctrl(ptr noundef nonnull %.03353, i32 noundef 12, i64 noundef 0, ptr noundef nonnull %4)
  %29 = icmp slt i64 %28, 1
  br i1 %29, label %.loopexit.sink.split, label %30

30:                                               ; preds = %6
  %31 = getelementptr inbounds nuw i8, ptr %4, i64 112
  %32 = getelementptr inbounds nuw i8, ptr %.03353, i64 112
  %33 = tail call i32 @CRYPTO_dup_ex_data(i32 noundef 12, ptr noundef nonnull %31, ptr noundef nonnull %32) #14
  %.not38 = icmp eq i32 %33, 0
  br i1 %.not38, label %.loopexit.sink.split, label %34

34:                                               ; preds = %30
  %35 = icmp eq ptr %.03551, null
  br i1 %35, label %BIO_push.exit, label %36

36:                                               ; preds = %34
  %37 = icmp eq ptr %.03452, null
  br i1 %37, label %BIO_push.exit, label %.preheader.i

.preheader.i:                                     ; preds = %36, %.preheader.i
  %.0.i = phi ptr [ %39, %.preheader.i ], [ %.03452, %36 ]
  %38 = getelementptr inbounds nuw i8, ptr %.0.i, i64 72
  %39 = load ptr, ptr %38, align 8, !tbaa !56
  %.not.i = icmp eq ptr %39, null
  br i1 %.not.i, label %40, label %.preheader.i, !llvm.loop !57

40:                                               ; preds = %.preheader.i
  %41 = getelementptr inbounds nuw i8, ptr %.0.i, i64 72
  store ptr %4, ptr %41, align 8, !tbaa !56
  %42 = getelementptr inbounds nuw i8, ptr %4, i64 80
  store ptr %.0.i, ptr %42, align 8, !tbaa !58
  %43 = tail call i64 @BIO_ctrl(ptr noundef nonnull %.03452, i32 noundef 6, i64 noundef 0, ptr noundef nonnull %.0.i)
  br label %BIO_push.exit

BIO_push.exit:                                    ; preds = %40, %36, %34
  %.136 = phi ptr [ %4, %34 ], [ %.03551, %36 ], [ %.03551, %40 ]
  %44 = getelementptr inbounds nuw i8, ptr %.03353, i64 72
  %45 = load ptr, ptr %44, align 8, !tbaa !56
  %.not = icmp eq ptr %45, null
  br i1 %.not, label %BIO_free_all.exit, label %.lr.ph, !llvm.loop !63

.loopexit.sink.split:                             ; preds = %30, %6
  %46 = tail call i32 @BIO_free(ptr noundef nonnull %4)
  br label %.loopexit

.loopexit:                                        ; preds = %.lr.ph, %.loopexit.sink.split
  %.old1.not.i = icmp eq ptr %.03551, null
  br i1 %.old1.not.i, label %BIO_free_all.exit, label %.preheader.i39

.preheader.i39:                                   ; preds = %.loopexit, %.preheader.i39
  %.0.i40 = phi ptr [ %50, %.preheader.i39 ], [ %.03551, %.loopexit ]
  %47 = getelementptr inbounds nuw i8, ptr %.0.i40, i64 88
  %48 = load atomic i32, ptr %47 acquire, align 4
  %49 = getelementptr inbounds nuw i8, ptr %.0.i40, i64 72
  %50 = load ptr, ptr %49, align 8, !tbaa !56
  %51 = tail call i32 @BIO_free(ptr noundef nonnull %.0.i40)
  %52 = icmp slt i32 %48, 2
  %53 = icmp ne ptr %50, null
  %or.cond.i = select i1 %52, i1 %53, i1 false
  br i1 %or.cond.i, label %.preheader.i39, label %BIO_free_all.exit, !llvm.loop !61

BIO_free_all.exit:                                ; preds = %BIO_push.exit, %.preheader.i39, %1, %.loopexit
  %.0 = phi ptr [ null, %.loopexit ], [ null, %1 ], [ null, %.preheader.i39 ], [ %.136, %BIO_push.exit ]
  ret ptr %.0
}